target datalayout = "e-m:e-p270:32:32-p271:32:32-p272:64:64-i64:64-i128:128-f80:128-n8:16:32:64-S128"
target triple = "x86_64-pc-linux-gnu"

%struct.CopyEnvStringsData = type { ptr, ptr, i64 }

; Function Attrs: nounwind uwtable
define internal zeroext i1 @CopyEnvStrings(ptr noundef %0, ptr noundef %1, ptr noundef %2, ptr noundef %3) #0 {
  %5 = alloca ptr, align 8
  %6 = alloca ptr, align 8
  %7 = alloca ptr, align 8
  %8 = alloca ptr, align 8
  %9 = alloca ptr, align 8
  %10 = alloca ptr, align 8
  %11 = alloca ptr, align 8
  %12 = alloca i64, align 8
  store ptr %0, ptr %5, align 8
  store ptr %1, ptr %6, align 8
  store ptr %2, ptr %7, align 8
  store ptr %3, ptr %8, align 8
  call void @llvm.lifetime.start.p0(i64 8, ptr %9) #7
  %13 = load ptr, ptr %5, align 8
  store ptr %13, ptr %9, align 8
  call void @llvm.lifetime.start.p0(i64 8, ptr %10) #7
  %14 = load ptr, ptr %7, align 8
  store ptr %14, ptr %10, align 8
  call void @llvm.lifetime.start.p0(i64 8, ptr %11) #7
  %15 = load ptr, ptr %8, align 8
  store ptr %15, ptr %11, align 8
  call void @llvm.lifetime.start.p0(i64 8, ptr %12) #7
  %16 = load ptr, ptr %10, align 8
  %17 = call i64 @SDL_strlen_REAL(ptr noundef %16)
  store i64 %17, ptr %12, align 8
  %18 = load ptr, ptr %9, align 8
  %19 = getelementptr inbounds nuw %struct.CopyEnvStringsData, ptr %18, i32 0, i32 1
  %20 = load ptr, ptr %19, align 8
  %21 = load ptr, ptr %9, align 8
  %22 = getelementptr inbounds nuw %struct.CopyEnvStringsData, ptr %21, i32 0, i32 0
  %23 = load ptr, ptr %22, align 8
  %24 = load ptr, ptr %9, align 8
  %25 = getelementptr inbounds nuw %struct.CopyEnvStringsData, ptr %24, i32 0, i32 2
  %26 = load i64, ptr %25, align 8
  %27 = getelementptr inbounds nuw ptr, ptr %23, i64 %26
  store ptr %20, ptr %27, align 8
  %28 = load ptr, ptr %9, align 8
  %29 = getelementptr inbounds nuw %struct.CopyEnvStringsData, ptr %28, i32 0, i32 1
  %30 = load ptr, ptr %29, align 8
  %31 = load ptr, ptr %10, align 8
  %32 = load i64, ptr %12, align 8
  call void @llvm.memcpy.p0.p0.i64(ptr align 1 %30, ptr align 1 %31, i64 %32, i1 false)
  %33 = load i64, ptr %12, align 8
  %34 = load ptr, ptr %9, align 8
  %35 = getelementptr inbounds nuw %struct.CopyEnvStringsData, ptr %34, i32 0, i32 1
  %36 = load ptr, ptr %35, align 8
  %37 = getelementptr inbounds nuw i8, ptr %36, i64 %33
  store ptr %37, ptr %35, align 8
  %38 = load ptr, ptr %9, align 8
  %39 = getelementptr inbounds nuw %struct.CopyEnvStringsData, ptr %38, i32 0, i32 1
  %40 = load ptr, ptr %39, align 8
  %41 = getelementptr inbounds nuw i8, ptr %40, i32 1
  store ptr %41, ptr %39, align 8
  store i8 61, ptr %40, align 1
  %42 = load ptr, ptr %11, align 8
  %43 = call i64 @SDL_strlen_REAL(ptr noundef %42)
  store i64 %43, ptr %12, align 8
  %44 = load ptr, ptr %9, align 8
  %45 = getelementptr inbounds nuw %struct.CopyEnvStringsData, ptr %44, i32 0, i32 1
  %46 = load ptr, ptr %45, align 8
  %47 = load ptr, ptr %11, align 8
  %48 = load i64, ptr %12, align 8
  call void @llvm.memcpy.p0.p0.i64(ptr align 1 %46, ptr align 1 %47, i64 %48, i1 false)
  %49 = load i64, ptr %12, align 8
  %50 = load ptr, ptr %9, align 8
  %51 = getelementptr inbounds nuw %struct.CopyEnvStringsData, ptr %50, i32 0, i32 1
  %52 = load ptr, ptr %51, align 8
  %53 = getelementptr inbounds nuw i8, ptr %52, i64 %49
  store ptr %53, ptr %51, align 8
  %54 = load ptr, ptr %9, align 8
  %55 = getelementptr inbounds nuw %struct.CopyEnvStringsData, ptr %54, i32 0, i32 1
  %56 = load ptr, ptr %55, align 8
  %57 = getelementptr inbounds nuw i8, ptr %56, i32 1
  store ptr %57, ptr %55, align 8
  store i8 0, ptr %56, align 1
  %58 = load ptr, ptr %9, align 8
  %59 = getelementptr inbounds nuw %struct.CopyEnvStringsData, ptr %58, i32 0, i32 2
  %60 = load i64, ptr %59, align 8
  %61 = add i64 %60, 1
  store i64 %61, ptr %59, align 8
  call void @llvm.lifetime.end.p0(i64 8, ptr %12) #7
  call void @llvm.lifetime.end.p0(i64 8, ptr %11) #7
  call void @llvm.lifetime.end.p0(i64 8, ptr %10) #7
  call void @llvm.lifetime.end.p0(i64 8, ptr %9) #7
  ret i1 true
}