; Function Attrs: nounwind uwtable
define internal noundef zeroext i1 @CopyEnvStrings(ptr noundef captures(none) %0, ptr readnone captures(none) %1, ptr noundef %2, ptr noundef %3) #0 {
  %5 = tail call i64 @SDL_strlen_REAL(ptr noundef %2) #11
  %6 = getelementptr inbounds nuw i8, ptr %0, i64 8
  %7 = load ptr, ptr %6, align 8
  %8 = load ptr, ptr %0, align 8
  %9 = getelementptr inbounds nuw i8, ptr %0, i64 16
  %10 = load i64, ptr %9, align 8
  %11 = getelementptr inbounds nuw ptr, ptr %8, i64 %10
  store ptr %7, ptr %11, align 8
  tail call void @llvm.memcpy.p0.p0.i64(ptr align 1 %7, ptr align 1 %2, i64 %5, i1 false)
  %12 = load ptr, ptr %6, align 8
  %13 = getelementptr inbounds nuw i8, ptr %12, i64 %5
  %14 = getelementptr inbounds nuw i8, ptr %13, i64 1
  store ptr %14, ptr %6, align 8
  store i8 61, ptr %13, align 1
  %15 = tail call i64 @SDL_strlen_REAL(ptr noundef %3) #11
  %16 = load ptr, ptr %6, align 8
  tail call void @llvm.memcpy.p0.p0.i64(ptr align 1 %16, ptr align 1 %3, i64 %15, i1 false)
  %17 = load ptr, ptr %6, align 8
  %18 = getelementptr inbounds nuw i8, ptr %17, i64 %15
  %19 = getelementptr inbounds nuw i8, ptr %18, i64 1
  store ptr %19, ptr %6, align 8
  store i8 0, ptr %18, align 1
  %20 = load i64, ptr %9, align 8
  %21 = add i64 %20, 1
  store i64 %21, ptr %9, align 8
  ret i1 true
}